; Listing generated by Microsoft (R) Optimizing Compiler Version 19.29.30143.0 

include listing.inc

INCLUDELIB MSVCRTD
INCLUDELIB OLDNAMES

msvcjmc	SEGMENT
__20BB4341_malloc@h DB 01H
__97D3638F_vcruntime_new@h DB 01H
__A2143F22_corecrt_stdio_config@h DB 01H
__829E1958_corecrt_wstdio@h DB 01H
__6DFAE8B8_stdio@h DB 01H
__1FEB9909_corecrt_memcpy_s@h DB 01H
__A751F051_corecrt_memory@h DB 01H
__9200769A_corecrt_wstring@h DB 01H
__32E5F013_string@h DB 01H
__C6E16F6F_corecrt_wconio@h DB 01H
__6D390390_corecrt_wio@h DB 01H
__1157D6BA_corecrt_wtime@h DB 01H
__1DC1E279_stat@h DB 01H
__93DC0B45_wchar@h DB 01H
__741AE07E_corecrt_math@h DB 01H
__B49664B7_stdlib@h DB 01H
__244AF085_cstdlib DB 01H
__7FE5F402_limits DB 01H
__589FA321_type_traits DB 01H
__B0A13A33_vcruntime_exception@h DB 01H
__FF458F76_exception DB 01H
__12269DE6_xutility DB 01H
__79D216CD_xmemory DB 01H
__0D019051_xstring DB 01H
__B2D2BA86_ctype@h DB 01H
__B7987E10_string DB 01H
__60BC708E_cmath DB 01H
__760BB52B_stdexcept DB 01H
__A4685E82_xcall_once@h DB 01H
__A0B61CF9_time@h DB 01H
__DDB379A0_xthreads@h DB 01H
__14D0A8C0_atomic DB 01H
__1B354CA2_system_error DB 01H
__65ADBEC9_vcruntime_typeinfo@h DB 01H
__62F96EFF_typeinfo DB 01H
__C34BF88C_memory DB 01H
__EF0EAF83_xfacet DB 01H
__7D708D37_xlocinfo DB 01H
__D23FE460_xlocale DB 01H
__4495FA24_xiosbase DB 01H
__4CB88277_xlocnum DB 01H
__845859A3_ios DB 01H
__67DA974F_xlocmon DB 01H
__D96D2425_xloctime DB 01H
__F61CEDE3_YmmVal@h DB 01H
__3B2006D1_Ch04_01_fcpp@cpp DB 01H
__6151C81E_sstream DB 01H
__A2FF0B9E_istream DB 01H
__C12F3EA4_ostream DB 01H
__74AB0D97_streambuf DB 01H
__038A2AA6_iterator DB 01H
__B30C2184_iosfwd DB 01H
__1347750E_utility DB 01H
__E458E21C_xstddef DB 01H
__F54903A0_xatomic@h DB 01H
__5E3DCDCC_iomanip DB 01H
msvcjmc	ENDS
PUBLIC	?__empty_global_delete@@YAXPEAX@Z		; __empty_global_delete
PUBLIC	?__empty_global_delete@@YAXPEAX_K@Z		; __empty_global_delete
PUBLIC	wmemcpy
PUBLIC	??$_Maklocstr@_W@std@@YAPEA_WPEBDPEA_WAEBU_Cvtvec@@@Z ; std::_Maklocstr<wchar_t>
PUBLIC	?_Maklocwcs@std@@YAPEA_WPEB_W@Z			; std::_Maklocwcs
PUBLIC	??$_Maklocstr@D@std@@YAPEADPEBDPEADAEBU_Cvtvec@@@Z ; std::_Maklocstr<char>
PUBLIC	??$_Getvals@_W@?$time_get@DV?$istreambuf_iterator@DU?$char_traits@D@std@@@std@@@std@@IEAAX_WAEBV_Locinfo@1@@Z ; std::time_get<char,std::istreambuf_iterator<char,std::char_traits<char> > >::_Getvals<wchar_t>
PUBLIC	??$_Getvals@_W@?$time_get@_WV?$istreambuf_iterator@_WU?$char_traits@_W@std@@@std@@@std@@IEAAX_WAEBV_Locinfo@1@@Z ; std::time_get<wchar_t,std::istreambuf_iterator<wchar_t,std::char_traits<wchar_t> > >::_Getvals<wchar_t>
PUBLIC	?MathI16_Iavx2@@YAXQEAUYmmVal@@PEBU1@1@Z	; MathI16_Iavx2
PUBLIC	?MathI32_Iavx2@@YAXQEAUYmmVal@@PEBU1@1@Z	; MathI32_Iavx2
PUBLIC	__JustMyCode_Default
PUBLIC	??_C@_0GI@GFIAKDGM@C?3?2Program?5Files?5?$CIx86?$CJ?2Microsof@ ; `string'
PUBLIC	?__LINE__Var@?0??_Maklocwcs@std@@YAPEA_WPEB_W@Z@4JA ; `std::_Maklocwcs'::`1'::__LINE__Var
PUBLIC	??_C@_0GI@OGMNKBMN@C?3?2Program?5Files?5?$CIx86?$CJ?2Microsof@ ; `string'
PUBLIC	??_C@_0N@LPFKKEBD@?3AM?3am?3PM?3pm@		; `string'
PUBLIC	??_C@_1BK@MHIKGOKE@?$AA?3?$AAA?$AAM?$AA?3?$AAa?$AAm?$AA?3?$AAP?$AAM?$AA?3?$AAp?$AAm@ ; `string'
EXTRN	__imp__calloc_dbg:PROC
EXTRN	memcpy:PROC
EXTRN	__imp_wcslen:PROC
EXTRN	strlen:PROC
EXTRN	?_Xbad_alloc@std@@YAXXZ:PROC			; std::_Xbad_alloc
EXTRN	_Mbrtowc:PROC
EXTRN	__imp_?_Getcvt@_Locinfo@std@@QEBA?AU_Cvtvec@@XZ:PROC
EXTRN	__imp_?_Getdays@_Locinfo@std@@QEBAPEBDXZ:PROC
EXTRN	__imp_?_Getmonths@_Locinfo@std@@QEBAPEBDXZ:PROC
EXTRN	__imp_?_W_Getdays@_Locinfo@std@@QEBAPEBGXZ:PROC
EXTRN	__imp_?_W_Getmonths@_Locinfo@std@@QEBAPEBGXZ:PROC
EXTRN	_RTC_CheckStackVars:PROC
EXTRN	_RTC_InitBase:PROC
EXTRN	_RTC_Shutdown:PROC
EXTRN	__CheckForDebuggerJustMyCode:PROC
EXTRN	__GSHandlerCheck:PROC
EXTRN	__security_check_cookie:PROC
EXTRN	__security_cookie:QWORD
;	COMDAT pdata
pdata	SEGMENT
$pdata$?__empty_global_delete@@YAXPEAX@Z DD imagerel $LN3
	DD	imagerel $LN3+41
	DD	imagerel $unwind$?__empty_global_delete@@YAXPEAX@Z
pdata	ENDS
;	COMDAT pdata
pdata	SEGMENT
$pdata$?__empty_global_delete@@YAXPEAX_K@Z DD imagerel $LN3
	DD	imagerel $LN3+46
	DD	imagerel $unwind$?__empty_global_delete@@YAXPEAX_K@Z
pdata	ENDS
;	COMDAT pdata
pdata	SEGMENT
$pdata$wmemcpy DD imagerel $LN3
	DD	imagerel $LN3+83
	DD	imagerel $unwind$wmemcpy
pdata	ENDS
;	COMDAT pdata
pdata	SEGMENT
$pdata$??$_Maklocstr@_W@std@@YAPEA_WPEBDPEA_WAEBU_Cvtvec@@@Z DD imagerel $LN12
	DD	imagerel $LN12+586
	DD	imagerel $unwind$??$_Maklocstr@_W@std@@YAPEA_WPEBDPEA_WAEBU_Cvtvec@@@Z
pdata	ENDS
;	COMDAT pdata
pdata	SEGMENT
$pdata$?_Maklocwcs@std@@YAPEA_WPEB_W@Z DD imagerel $LN4
	DD	imagerel $LN4+142
	DD	imagerel $unwind$?_Maklocwcs@std@@YAPEA_WPEB_W@Z
pdata	ENDS
;	COMDAT pdata
pdata	SEGMENT
$pdata$??$_Maklocstr@D@std@@YAPEADPEBDPEADAEBU_Cvtvec@@@Z DD imagerel $LN7
	DD	imagerel $LN7+200
	DD	imagerel $unwind$??$_Maklocstr@D@std@@YAPEADPEBDPEADAEBU_Cvtvec@@@Z
pdata	ENDS
;	COMDAT pdata
pdata	SEGMENT
$pdata$??$_Getvals@_W@?$time_get@DV?$istreambuf_iterator@DU?$char_traits@D@std@@@std@@@std@@IEAAX_WAEBV_Locinfo@1@@Z DD imagerel $LN5
	DD	imagerel $LN5+356
	DD	imagerel $unwind$??$_Getvals@_W@?$time_get@DV?$istreambuf_iterator@DU?$char_traits@D@std@@@std@@@std@@IEAAX_WAEBV_Locinfo@1@@Z
pdata	ENDS
;	COMDAT pdata
pdata	SEGMENT
$pdata$??$_Getvals@_W@?$time_get@_WV?$istreambuf_iterator@_WU?$char_traits@_W@std@@@std@@@std@@IEAAX_WAEBV_Locinfo@1@@Z DD imagerel $LN5
	DD	imagerel $LN5+356
	DD	imagerel $unwind$??$_Getvals@_W@?$time_get@_WV?$istreambuf_iterator@_WU?$char_traits@_W@std@@@std@@@std@@IEAAX_WAEBV_Locinfo@1@@Z
pdata	ENDS
;	COMDAT pdata
pdata	SEGMENT
$pdata$?MathI16_Iavx2@@YAXQEAUYmmVal@@PEBU1@1@Z DD imagerel $LN3
	DD	imagerel $LN3+536
	DD	imagerel $unwind$?MathI16_Iavx2@@YAXQEAUYmmVal@@PEBU1@1@Z
pdata	ENDS
;	COMDAT pdata
pdata	SEGMENT
$pdata$?MathI32_Iavx2@@YAXQEAUYmmVal@@PEBU1@1@Z DD imagerel $LN3
	DD	imagerel $LN3+535
	DD	imagerel $unwind$?MathI32_Iavx2@@YAXQEAUYmmVal@@PEBU1@1@Z
pdata	ENDS
;	COMDAT rtc$TMZ
rtc$TMZ	SEGMENT
_RTC_Shutdown.rtc$TMZ DQ FLAT:_RTC_Shutdown
rtc$TMZ	ENDS
;	COMDAT rtc$IMZ
rtc$IMZ	SEGMENT
_RTC_InitBase.rtc$IMZ DQ FLAT:_RTC_InitBase
rtc$IMZ	ENDS
;	COMDAT ??_C@_1BK@MHIKGOKE@?$AA?3?$AAA?$AAM?$AA?3?$AAa?$AAm?$AA?3?$AAP?$AAM?$AA?3?$AAp?$AAm@
CONST	SEGMENT
??_C@_1BK@MHIKGOKE@?$AA?3?$AAA?$AAM?$AA?3?$AAa?$AAm?$AA?3?$AAP?$AAM?$AA?3?$AAp?$AAm@ DB ':'
	DB	00H, 'A', 00H, 'M', 00H, ':', 00H, 'a', 00H, 'm', 00H, ':', 00H
	DB	'P', 00H, 'M', 00H, ':', 00H, 'p', 00H, 'm', 00H, 00H, 00H ; `string'
CONST	ENDS
;	COMDAT ??_C@_0N@LPFKKEBD@?3AM?3am?3PM?3pm@
CONST	SEGMENT
??_C@_0N@LPFKKEBD@?3AM?3am?3PM?3pm@ DB ':AM:am:PM:pm', 00H ; `string'
CONST	ENDS
;	COMDAT ??_C@_0GI@OGMNKBMN@C?3?2Program?5Files?5?$CIx86?$CJ?2Microsof@
CONST	SEGMENT
??_C@_0GI@OGMNKBMN@C?3?2Program?5Files?5?$CIx86?$CJ?2Microsof@ DB 'C:\Pro'
	DB	'gram Files (x86)\Microsoft Visual Studio\2019\Community\VC\To'
	DB	'ols\MSVC\14.29.30133\include\xlocnum', 00H	; `string'
CONST	ENDS
;	COMDAT ?__LINE__Var@?0??_Maklocwcs@std@@YAPEA_WPEB_W@Z@4JA
_DATA	SEGMENT
?__LINE__Var@?0??_Maklocwcs@std@@YAPEA_WPEB_W@Z@4JA DD 05aH ; `std::_Maklocwcs'::`1'::__LINE__Var
_DATA	ENDS
;	COMDAT ??_C@_0GI@GFIAKDGM@C?3?2Program?5Files?5?$CIx86?$CJ?2Microsof@
CONST	SEGMENT
??_C@_0GI@GFIAKDGM@C?3?2Program?5Files?5?$CIx86?$CJ?2Microsof@ DB 'C:\Pro'
	DB	'gram Files (x86)\Microsoft Visual Studio\2019\Community\VC\To'
	DB	'ols\MSVC\14.29.30133\include\xlocale', 00H	; `string'
CONST	ENDS
;	COMDAT xdata
xdata	SEGMENT
$unwind$?MathI32_Iavx2@@YAXQEAUYmmVal@@PEBU1@1@Z DD 02d062801H
	DD	011a231fH
	DD	0701300d2H
	DD	0d0115012H
xdata	ENDS
;	COMDAT xdata
xdata	SEGMENT
$unwind$?MathI16_Iavx2@@YAXQEAUYmmVal@@PEBU1@1@Z DD 02d062801H
	DD	011a231fH
	DD	0701300d2H
	DD	0d0115012H
xdata	ENDS
;	COMDAT xdata
xdata	SEGMENT
$unwind$??$_Getvals@_W@?$time_get@_WV?$istreambuf_iterator@_WU?$char_traits@_W@std@@@std@@@std@@IEAAX_WAEBV_Locinfo@1@@Z DD 025061e01H
	DD	0119231eH
	DD	070120026H
	DD	050106011H
xdata	ENDS
;	COMDAT xdata
xdata	SEGMENT
$unwind$??$_Getvals@_W@?$time_get@DV?$istreambuf_iterator@DU?$char_traits@D@std@@@std@@@std@@IEAAX_WAEBV_Locinfo@1@@Z DD 025061e01H
	DD	0119231eH
	DD	070120026H
	DD	050106011H
xdata	ENDS
;	COMDAT xdata
xdata	SEGMENT
$unwind$??$_Maklocstr@D@std@@YAPEADPEBDPEADAEBU_Cvtvec@@@Z DD 035051d01H
	DD	0118331dH
	DD	07011002bH
	DD	05010H
xdata	ENDS
;	COMDAT xdata
xdata	SEGMENT
$unwind$?_Maklocwcs@std@@YAPEA_WPEB_W@Z DD 035051301H
	DD	010e3313H
	DD	070070027H
	DD	05006H
xdata	ENDS
;	COMDAT voltbl
voltbl	SEGMENT
_volmd	DW	040H
	DW	0231H
voltbl	ENDS
;	COMDAT xdata
xdata	SEGMENT
$unwind$??$_Maklocstr@_W@std@@YAPEA_WPEBDPEA_WAEBU_Cvtvec@@@Z DD 035054719H
	DD	0118331dH
	DD	070110047H
	DD	05010H
	DD	imagerel __GSHandlerCheck
	DD	0228H
xdata	ENDS
;	COMDAT CONST
CONST	SEGMENT
??$_Maklocstr@_W@std@@YAPEA_WPEBDPEA_WAEBU_Cvtvec@@@Z$rtcName$0 DB 05fH ; std::_Maklocstr<wchar_t>
	DB	057H
	DB	063H
	DB	00H
??$_Maklocstr@_W@std@@YAPEA_WPEBDPEA_WAEBU_Cvtvec@@@Z$rtcName$1 DB 05fH ; std::_Maklocstr<wchar_t>
	DB	04dH
	DB	062H
	DB	073H
	DB	074H
	DB	031H
	DB	00H
	ORG $+1
??$_Maklocstr@_W@std@@YAPEA_WPEBDPEA_WAEBU_Cvtvec@@@Z$rtcName$2 DB 05fH ; std::_Maklocstr<wchar_t>
	DB	04dH
	DB	062H
	DB	073H
	DB	074H
	DB	032H
	DB	00H
	ORG $+13
??$_Maklocstr@_W@std@@YAPEA_WPEBDPEA_WAEBU_Cvtvec@@@Z$rtcVarDesc DD 0158H ; std::_Maklocstr<wchar_t>
	DD	08H
	DQ	FLAT:??$_Maklocstr@_W@std@@YAPEA_WPEBDPEA_WAEBU_Cvtvec@@@Z$rtcName$2
	DD	0f8H
	DD	08H
	DQ	FLAT:??$_Maklocstr@_W@std@@YAPEA_WPEBDPEA_WAEBU_Cvtvec@@@Z$rtcName$1
	DD	0d4H
	DD	02H
	DQ	FLAT:??$_Maklocstr@_W@std@@YAPEA_WPEBDPEA_WAEBU_Cvtvec@@@Z$rtcName$0
	ORG $+144
??$_Maklocstr@_W@std@@YAPEA_WPEBDPEA_WAEBU_Cvtvec@@@Z$rtcFrameData DD 03H ; std::_Maklocstr<wchar_t>
	DD	00H
	DQ	FLAT:??$_Maklocstr@_W@std@@YAPEA_WPEBDPEA_WAEBU_Cvtvec@@@Z$rtcVarDesc
CONST	ENDS
;	COMDAT xdata
xdata	SEGMENT
$unwind$wmemcpy DD 025051d01H
	DD	0118231dH
	DD	07011001dH
	DD	05010H
xdata	ENDS
;	COMDAT xdata
xdata	SEGMENT
$unwind$?__empty_global_delete@@YAXPEAX_K@Z DD 025051801H
	DD	01132318H
	DD	0700c001dH
	DD	0500bH
xdata	ENDS
;	COMDAT xdata
xdata	SEGMENT
$unwind$?__empty_global_delete@@YAXPEAX@Z DD 025051301H
	DD	010e2313H
	DD	07007001dH
	DD	05006H
xdata	ENDS
; Function compile flags: /Odt
;	COMDAT __JustMyCode_Default
_TEXT	SEGMENT
__JustMyCode_Default PROC				; COMDAT
  00000	c2 00 00	 ret	 0
__JustMyCode_Default ENDP
_TEXT	ENDS
; Function compile flags: /Odtp /RTCsu /ZI
; File C:\Users\Rahul Kumar\source\repos\CH04_01_sol\CH04_01\Ch04_01_fcpp.cpp
;	COMDAT ?MathI32_Iavx2@@YAXQEAUYmmVal@@PEBU1@1@Z
_TEXT	SEGMENT
a_vals$ = 32
b_vals$ = 96
c_vals0$ = 160
c_vals1$ = 224
c_vals2$ = 288
c_vals3$ = 352
c_vals4$ = 416
c_vals5$ = 480
$T1 = 1120
$T2 = 1184
$T3 = 1248
$T4 = 1312
$T5 = 1376
$T6 = 1440
$T7 = 1504
$T8 = 1568
c$ = 1680
a$ = 1688
b$ = 1696
?MathI32_Iavx2@@YAXQEAUYmmVal@@PEBU1@1@Z PROC		; MathI32_Iavx2, COMDAT

; 24   : {

$LN3:
  00000	4c 89 44 24 18	 mov	 QWORD PTR [rsp+24], r8
  00005	48 89 54 24 10	 mov	 QWORD PTR [rsp+16], rdx
  0000a	48 89 4c 24 08	 mov	 QWORD PTR [rsp+8], rcx
  0000f	41 55		 push	 r13
  00011	55		 push	 rbp
  00012	57		 push	 rdi
  00013	48 81 ec 90 06
	00 00		 sub	 rsp, 1680		; 00000690H
  0001a	4c 8d 6c 24 20	 lea	 r13, QWORD PTR [rsp+32]
  0001f	48 8d 6c 24 40	 lea	 rbp, QWORD PTR [rsp+64]
  00024	48 83 e5 e0	 and	 rbp, -32		; ffffffffffffffe0H
  00028	48 8d 0d 00 00
	00 00		 lea	 rcx, OFFSET FLAT:__3B2006D1_Ch04_01_fcpp@cpp
  0002f	e8 00 00 00 00	 call	 __CheckForDebuggerJustMyCode

; 25   : 	__m256i a_vals = _mm256_load_si256((__m256i*)a);

  00034	49 8b 85 98 06
	00 00		 mov	 rax, QWORD PTR a$[r13]
  0003b	c5 fe 6f 00	 vmovdqu ymm0, YMMWORD PTR [rax]
  0003f	c5 fe 7f 85 60
	04 00 00	 vmovdqu YMMWORD PTR $T1[rbp], ymm0
  00047	c5 fe 6f 85 60
	04 00 00	 vmovdqu ymm0, YMMWORD PTR $T1[rbp]
  0004f	c5 fe 7f 45 20	 vmovdqu YMMWORD PTR a_vals$[rbp], ymm0

; 26   : 	__m256i b_vals = _mm256_load_si256((__m256i*)b);

  00054	49 8b 85 a0 06
	00 00		 mov	 rax, QWORD PTR b$[r13]
  0005b	c5 fe 6f 00	 vmovdqu ymm0, YMMWORD PTR [rax]
  0005f	c5 fe 7f 85 a0
	04 00 00	 vmovdqu YMMWORD PTR $T2[rbp], ymm0
  00067	c5 fe 6f 85 a0
	04 00 00	 vmovdqu ymm0, YMMWORD PTR $T2[rbp]
  0006f	c5 fe 7f 45 60	 vmovdqu YMMWORD PTR b_vals$[rbp], ymm0

; 27   : 	__m256i c_vals0 = _mm256_add_epi32(a_vals, b_vals);

  00074	c5 fe 6f 45 20	 vmovdqu ymm0, YMMWORD PTR a_vals$[rbp]
  00079	c5 fd fe 45 60	 vpaddd	 ymm0, ymm0, YMMWORD PTR b_vals$[rbp]
  0007e	c5 fe 7f 85 e0
	04 00 00	 vmovdqu YMMWORD PTR $T3[rbp], ymm0
  00086	c5 fe 6f 85 e0
	04 00 00	 vmovdqu ymm0, YMMWORD PTR $T3[rbp]
  0008e	c5 fe 7f 85 a0
	00 00 00	 vmovdqu YMMWORD PTR c_vals0$[rbp], ymm0

; 28   : 	__m256i c_vals1 = _mm256_sub_epi32(a_vals, b_vals);

  00096	c5 fe 6f 45 20	 vmovdqu ymm0, YMMWORD PTR a_vals$[rbp]
  0009b	c5 fd fa 45 60	 vpsubd	 ymm0, ymm0, YMMWORD PTR b_vals$[rbp]
  000a0	c5 fe 7f 85 20
	05 00 00	 vmovdqu YMMWORD PTR $T4[rbp], ymm0
  000a8	c5 fe 6f 85 20
	05 00 00	 vmovdqu ymm0, YMMWORD PTR $T4[rbp]
  000b0	c5 fe 7f 85 e0
	00 00 00	 vmovdqu YMMWORD PTR c_vals1$[rbp], ymm0

; 29   : 	__m256i c_vals2 = _mm256_mullo_epi32(a_vals, b_vals);

  000b8	c5 fe 6f 45 20	 vmovdqu ymm0, YMMWORD PTR a_vals$[rbp]
  000bd	c4 e2 7d 40 45
	60		 vpmulld ymm0, ymm0, YMMWORD PTR b_vals$[rbp]
  000c3	c5 fe 7f 85 60
	05 00 00	 vmovdqu YMMWORD PTR $T5[rbp], ymm0
  000cb	c5 fe 6f 85 60
	05 00 00	 vmovdqu ymm0, YMMWORD PTR $T5[rbp]
  000d3	c5 fe 7f 85 20
	01 00 00	 vmovdqu YMMWORD PTR c_vals2$[rbp], ymm0

; 30   : 	__m256i c_vals3 = _mm256_sllv_epi32(a_vals, b_vals);

  000db	c5 fe 6f 45 20	 vmovdqu ymm0, YMMWORD PTR a_vals$[rbp]
  000e0	c4 e2 7d 47 45
	60		 vpsllvd ymm0, ymm0, YMMWORD PTR b_vals$[rbp]
  000e6	c5 fe 7f 85 a0
	05 00 00	 vmovdqu YMMWORD PTR $T6[rbp], ymm0
  000ee	c5 fe 6f 85 a0
	05 00 00	 vmovdqu ymm0, YMMWORD PTR $T6[rbp]
  000f6	c5 fe 7f 85 60
	01 00 00	 vmovdqu YMMWORD PTR c_vals3$[rbp], ymm0

; 31   : 	__m256i c_vals4 = _mm256_srav_epi32(a_vals, b_vals);

  000fe	c5 fe 6f 45 20	 vmovdqu ymm0, YMMWORD PTR a_vals$[rbp]
  00103	c4 e2 7d 46 45
	60		 vpsravd ymm0, ymm0, YMMWORD PTR b_vals$[rbp]
  00109	c5 fe 7f 85 e0
	05 00 00	 vmovdqu YMMWORD PTR $T7[rbp], ymm0
  00111	c5 fe 6f 85 e0
	05 00 00	 vmovdqu ymm0, YMMWORD PTR $T7[rbp]
  00119	c5 fe 7f 85 a0
	01 00 00	 vmovdqu YMMWORD PTR c_vals4$[rbp], ymm0

; 32   : 	__m256i c_vals5 = _mm256_abs_epi32(a_vals);

  00121	c4 e2 7d 1e 45
	20		 vpabsd	 ymm0, YMMWORD PTR a_vals$[rbp]
  00127	c5 fe 7f 85 20
	06 00 00	 vmovdqu YMMWORD PTR $T8[rbp], ymm0
  0012f	c5 fe 6f 85 20
	06 00 00	 vmovdqu ymm0, YMMWORD PTR $T8[rbp]
  00137	c5 fe 7f 85 e0
	01 00 00	 vmovdqu YMMWORD PTR c_vals5$[rbp], ymm0

; 33   : 	_mm256_store_si256((__m256i*) & c[0], c_vals0);

  0013f	b8 20 00 00 00	 mov	 eax, 32			; 00000020H
  00144	48 6b c0 00	 imul	 rax, rax, 0
  00148	49 8b 8d 90 06
	00 00		 mov	 rcx, QWORD PTR c$[r13]
  0014f	48 03 c8	 add	 rcx, rax
  00152	48 8b c1	 mov	 rax, rcx
  00155	c5 fe 6f 85 a0
	00 00 00	 vmovdqu ymm0, YMMWORD PTR c_vals0$[rbp]
  0015d	c5 fe 7f 00	 vmovdqu YMMWORD PTR [rax], ymm0

; 34   : 	_mm256_store_si256((__m256i*) & c[1], c_vals1);

  00161	b8 20 00 00 00	 mov	 eax, 32			; 00000020H
  00166	48 6b c0 01	 imul	 rax, rax, 1
  0016a	49 8b 8d 90 06
	00 00		 mov	 rcx, QWORD PTR c$[r13]
  00171	48 03 c8	 add	 rcx, rax
  00174	48 8b c1	 mov	 rax, rcx
  00177	c5 fe 6f 85 e0
	00 00 00	 vmovdqu ymm0, YMMWORD PTR c_vals1$[rbp]
  0017f	c5 fe 7f 00	 vmovdqu YMMWORD PTR [rax], ymm0

; 35   : 	_mm256_store_si256((__m256i*) & c[2], c_vals2);

  00183	b8 20 00 00 00	 mov	 eax, 32			; 00000020H
  00188	48 6b c0 02	 imul	 rax, rax, 2
  0018c	49 8b 8d 90 06
	00 00		 mov	 rcx, QWORD PTR c$[r13]
  00193	48 03 c8	 add	 rcx, rax
  00196	48 8b c1	 mov	 rax, rcx
  00199	c5 fe 6f 85 20
	01 00 00	 vmovdqu ymm0, YMMWORD PTR c_vals2$[rbp]
  001a1	c5 fe 7f 00	 vmovdqu YMMWORD PTR [rax], ymm0

; 36   : 	_mm256_store_si256((__m256i*) & c[3], c_vals3);

  001a5	b8 20 00 00 00	 mov	 eax, 32			; 00000020H
  001aa	48 6b c0 03	 imul	 rax, rax, 3
  001ae	49 8b 8d 90 06
	00 00		 mov	 rcx, QWORD PTR c$[r13]
  001b5	48 03 c8	 add	 rcx, rax
  001b8	48 8b c1	 mov	 rax, rcx
  001bb	c5 fe 6f 85 60
	01 00 00	 vmovdqu ymm0, YMMWORD PTR c_vals3$[rbp]
  001c3	c5 fe 7f 00	 vmovdqu YMMWORD PTR [rax], ymm0

; 37   : 	_mm256_store_si256((__m256i*) & c[4], c_vals4);

  001c7	b8 20 00 00 00	 mov	 eax, 32			; 00000020H
  001cc	48 6b c0 04	 imul	 rax, rax, 4
  001d0	49 8b 8d 90 06
	00 00		 mov	 rcx, QWORD PTR c$[r13]
  001d7	48 03 c8	 add	 rcx, rax
  001da	48 8b c1	 mov	 rax, rcx
  001dd	c5 fe 6f 85 a0
	01 00 00	 vmovdqu ymm0, YMMWORD PTR c_vals4$[rbp]
  001e5	c5 fe 7f 00	 vmovdqu YMMWORD PTR [rax], ymm0

; 38   : 	_mm256_store_si256((__m256i*) & c[5], c_vals5);

  001e9	b8 20 00 00 00	 mov	 eax, 32			; 00000020H
  001ee	48 6b c0 05	 imul	 rax, rax, 5
  001f2	49 8b 8d 90 06
	00 00		 mov	 rcx, QWORD PTR c$[r13]
  001f9	48 03 c8	 add	 rcx, rax
  001fc	48 8b c1	 mov	 rax, rcx
  001ff	c5 fe 6f 85 e0
	01 00 00	 vmovdqu ymm0, YMMWORD PTR c_vals5$[rbp]
  00207	c5 fe 7f 00	 vmovdqu YMMWORD PTR [rax], ymm0

; 39   : }

  0020b	49 8d a5 70 06
	00 00		 lea	 rsp, QWORD PTR [r13+1648]
  00212	5f		 pop	 rdi
  00213	5d		 pop	 rbp
  00214	41 5d		 pop	 r13
  00216	c3		 ret	 0
?MathI32_Iavx2@@YAXQEAUYmmVal@@PEBU1@1@Z ENDP		; MathI32_Iavx2
_TEXT	ENDS
; Function compile flags: /Odtp /RTCsu /ZI
; File C:\Users\Rahul Kumar\source\repos\CH04_01_sol\CH04_01\Ch04_01_fcpp.cpp
;	COMDAT ?MathI16_Iavx2@@YAXQEAUYmmVal@@PEBU1@1@Z
_TEXT	SEGMENT
a_vals$ = 32
b_vals$ = 96
c_vals0$ = 160
c_vals1$ = 224
c_vals2$ = 288
c_vals3$ = 352
c_vals4$ = 416
c_vals5$ = 480
$T1 = 1120
$T2 = 1184
$T3 = 1248
$T4 = 1312
$T5 = 1376
$T6 = 1440
$T7 = 1504
$T8 = 1568
c$ = 1680
a$ = 1688
b$ = 1696
?MathI16_Iavx2@@YAXQEAUYmmVal@@PEBU1@1@Z PROC		; MathI16_Iavx2, COMDAT

; 7    : {

$LN3:
  00000	4c 89 44 24 18	 mov	 QWORD PTR [rsp+24], r8
  00005	48 89 54 24 10	 mov	 QWORD PTR [rsp+16], rdx
  0000a	48 89 4c 24 08	 mov	 QWORD PTR [rsp+8], rcx
  0000f	41 55		 push	 r13
  00011	55		 push	 rbp
  00012	57		 push	 rdi
  00013	48 81 ec 90 06
	00 00		 sub	 rsp, 1680		; 00000690H
  0001a	4c 8d 6c 24 20	 lea	 r13, QWORD PTR [rsp+32]
  0001f	48 8d 6c 24 40	 lea	 rbp, QWORD PTR [rsp+64]
  00024	48 83 e5 e0	 and	 rbp, -32		; ffffffffffffffe0H
  00028	48 8d 0d 00 00
	00 00		 lea	 rcx, OFFSET FLAT:__3B2006D1_Ch04_01_fcpp@cpp
  0002f	e8 00 00 00 00	 call	 __CheckForDebuggerJustMyCode

; 8    : 	__m256i a_vals = _mm256_load_si256((__m256i*)a);

  00034	49 8b 85 98 06
	00 00		 mov	 rax, QWORD PTR a$[r13]
  0003b	c5 fe 6f 00	 vmovdqu ymm0, YMMWORD PTR [rax]
  0003f	c5 fe 7f 85 60
	04 00 00	 vmovdqu YMMWORD PTR $T1[rbp], ymm0
  00047	c5 fe 6f 85 60
	04 00 00	 vmovdqu ymm0, YMMWORD PTR $T1[rbp]
  0004f	c5 fe 7f 45 20	 vmovdqu YMMWORD PTR a_vals$[rbp], ymm0

; 9    : 	__m256i b_vals = _mm256_load_si256((__m256i*)b);

  00054	49 8b 85 a0 06
	00 00		 mov	 rax, QWORD PTR b$[r13]
  0005b	c5 fe 6f 00	 vmovdqu ymm0, YMMWORD PTR [rax]
  0005f	c5 fe 7f 85 a0
	04 00 00	 vmovdqu YMMWORD PTR $T2[rbp], ymm0
  00067	c5 fe 6f 85 a0
	04 00 00	 vmovdqu ymm0, YMMWORD PTR $T2[rbp]
  0006f	c5 fe 7f 45 60	 vmovdqu YMMWORD PTR b_vals$[rbp], ymm0

; 10   : 	__m256i c_vals0 = _mm256_add_epi16(a_vals, b_vals);

  00074	c5 fe 6f 45 20	 vmovdqu ymm0, YMMWORD PTR a_vals$[rbp]
  00079	c5 fd fd 45 60	 vpaddw	 ymm0, ymm0, YMMWORD PTR b_vals$[rbp]
  0007e	c5 fe 7f 85 e0
	04 00 00	 vmovdqu YMMWORD PTR $T3[rbp], ymm0
  00086	c5 fe 6f 85 e0
	04 00 00	 vmovdqu ymm0, YMMWORD PTR $T3[rbp]
  0008e	c5 fe 7f 85 a0
	00 00 00	 vmovdqu YMMWORD PTR c_vals0$[rbp], ymm0

; 11   : 	__m256i c_vals1 = _mm256_adds_epi16(a_vals, b_vals);

  00096	c5 fe 6f 45 20	 vmovdqu ymm0, YMMWORD PTR a_vals$[rbp]
  0009b	c5 fd ed 45 60	 vpaddsw ymm0, ymm0, YMMWORD PTR b_vals$[rbp]
  000a0	c5 fe 7f 85 20
	05 00 00	 vmovdqu YMMWORD PTR $T4[rbp], ymm0
  000a8	c5 fe 6f 85 20
	05 00 00	 vmovdqu ymm0, YMMWORD PTR $T4[rbp]
  000b0	c5 fe 7f 85 e0
	00 00 00	 vmovdqu YMMWORD PTR c_vals1$[rbp], ymm0

; 12   : 	__m256i c_vals2 = _mm256_sub_epi16(a_vals, b_vals);

  000b8	c5 fe 6f 45 20	 vmovdqu ymm0, YMMWORD PTR a_vals$[rbp]
  000bd	c5 fd f9 45 60	 vpsubw	 ymm0, ymm0, YMMWORD PTR b_vals$[rbp]
  000c2	c5 fe 7f 85 60
	05 00 00	 vmovdqu YMMWORD PTR $T5[rbp], ymm0
  000ca	c5 fe 6f 85 60
	05 00 00	 vmovdqu ymm0, YMMWORD PTR $T5[rbp]
  000d2	c5 fe 7f 85 20
	01 00 00	 vmovdqu YMMWORD PTR c_vals2$[rbp], ymm0

; 13   : 	__m256i c_vals3 = _mm256_subs_epi16(a_vals, b_vals);

  000da	c5 fe 6f 45 20	 vmovdqu ymm0, YMMWORD PTR a_vals$[rbp]
  000df	c5 fd e9 45 60	 vpsubsw ymm0, ymm0, YMMWORD PTR b_vals$[rbp]
  000e4	c5 fe 7f 85 a0
	05 00 00	 vmovdqu YMMWORD PTR $T6[rbp], ymm0
  000ec	c5 fe 6f 85 a0
	05 00 00	 vmovdqu ymm0, YMMWORD PTR $T6[rbp]
  000f4	c5 fe 7f 85 60
	01 00 00	 vmovdqu YMMWORD PTR c_vals3$[rbp], ymm0

; 14   : 	__m256i c_vals4 = _mm256_min_epi16(a_vals, b_vals);

  000fc	c5 fe 6f 45 20	 vmovdqu ymm0, YMMWORD PTR a_vals$[rbp]
  00101	c5 fd ea 45 60	 vpminsw ymm0, ymm0, YMMWORD PTR b_vals$[rbp]
  00106	c5 fe 7f 85 e0
	05 00 00	 vmovdqu YMMWORD PTR $T7[rbp], ymm0
  0010e	c5 fe 6f 85 e0
	05 00 00	 vmovdqu ymm0, YMMWORD PTR $T7[rbp]
  00116	c5 fe 7f 85 a0
	01 00 00	 vmovdqu YMMWORD PTR c_vals4$[rbp], ymm0

; 15   : 	__m256i c_vals5 = _mm256_max_epi16(a_vals, b_vals);

  0011e	c5 fe 6f 45 20	 vmovdqu ymm0, YMMWORD PTR a_vals$[rbp]
  00123	c5 fd ee 45 60	 vpmaxsw ymm0, ymm0, YMMWORD PTR b_vals$[rbp]
  00128	c5 fe 7f 85 20
	06 00 00	 vmovdqu YMMWORD PTR $T8[rbp], ymm0
  00130	c5 fe 6f 85 20
	06 00 00	 vmovdqu ymm0, YMMWORD PTR $T8[rbp]
  00138	c5 fe 7f 85 e0
	01 00 00	 vmovdqu YMMWORD PTR c_vals5$[rbp], ymm0

; 16   : 	_mm256_store_si256((__m256i*) & c[0], c_vals0);

  00140	b8 20 00 00 00	 mov	 eax, 32			; 00000020H
  00145	48 6b c0 00	 imul	 rax, rax, 0
  00149	49 8b 8d 90 06
	00 00		 mov	 rcx, QWORD PTR c$[r13]
  00150	48 03 c8	 add	 rcx, rax
  00153	48 8b c1	 mov	 rax, rcx
  00156	c5 fe 6f 85 a0
	00 00 00	 vmovdqu ymm0, YMMWORD PTR c_vals0$[rbp]
  0015e	c5 fe 7f 00	 vmovdqu YMMWORD PTR [rax], ymm0

; 17   : 	_mm256_store_si256((__m256i*) & c[1], c_vals1);

  00162	b8 20 00 00 00	 mov	 eax, 32			; 00000020H
  00167	48 6b c0 01	 imul	 rax, rax, 1
  0016b	49 8b 8d 90 06
	00 00		 mov	 rcx, QWORD PTR c$[r13]
  00172	48 03 c8	 add	 rcx, rax
  00175	48 8b c1	 mov	 rax, rcx
  00178	c5 fe 6f 85 e0
	00 00 00	 vmovdqu ymm0, YMMWORD PTR c_vals1$[rbp]
  00180	c5 fe 7f 00	 vmovdqu YMMWORD PTR [rax], ymm0

; 18   : 	_mm256_store_si256((__m256i*) & c[2], c_vals2);

  00184	b8 20 00 00 00	 mov	 eax, 32			; 00000020H
  00189	48 6b c0 02	 imul	 rax, rax, 2
  0018d	49 8b 8d 90 06
	00 00		 mov	 rcx, QWORD PTR c$[r13]
  00194	48 03 c8	 add	 rcx, rax
  00197	48 8b c1	 mov	 rax, rcx
  0019a	c5 fe 6f 85 20
	01 00 00	 vmovdqu ymm0, YMMWORD PTR c_vals2$[rbp]
  001a2	c5 fe 7f 00	 vmovdqu YMMWORD PTR [rax], ymm0

; 19   : 	_mm256_store_si256((__m256i*) & c[3], c_vals3);

  001a6	b8 20 00 00 00	 mov	 eax, 32			; 00000020H
  001ab	48 6b c0 03	 imul	 rax, rax, 3
  001af	49 8b 8d 90 06
	00 00		 mov	 rcx, QWORD PTR c$[r13]
  001b6	48 03 c8	 add	 rcx, rax
  001b9	48 8b c1	 mov	 rax, rcx
  001bc	c5 fe 6f 85 60
	01 00 00	 vmovdqu ymm0, YMMWORD PTR c_vals3$[rbp]
  001c4	c5 fe 7f 00	 vmovdqu YMMWORD PTR [rax], ymm0

; 20   : 	_mm256_store_si256((__m256i*) & c[4], c_vals4);

  001c8	b8 20 00 00 00	 mov	 eax, 32			; 00000020H
  001cd	48 6b c0 04	 imul	 rax, rax, 4
  001d1	49 8b 8d 90 06
	00 00		 mov	 rcx, QWORD PTR c$[r13]
  001d8	48 03 c8	 add	 rcx, rax
  001db	48 8b c1	 mov	 rax, rcx
  001de	c5 fe 6f 85 a0
	01 00 00	 vmovdqu ymm0, YMMWORD PTR c_vals4$[rbp]
  001e6	c5 fe 7f 00	 vmovdqu YMMWORD PTR [rax], ymm0

; 21   : 	_mm256_store_si256((__m256i*) & c[5], c_vals5);

  001ea	b8 20 00 00 00	 mov	 eax, 32			; 00000020H
  001ef	48 6b c0 05	 imul	 rax, rax, 5
  001f3	49 8b 8d 90 06
	00 00		 mov	 rcx, QWORD PTR c$[r13]
  001fa	48 03 c8	 add	 rcx, rax
  001fd	48 8b c1	 mov	 rax, rcx
  00200	c5 fe 6f 85 e0
	01 00 00	 vmovdqu ymm0, YMMWORD PTR c_vals5$[rbp]
  00208	c5 fe 7f 00	 vmovdqu YMMWORD PTR [rax], ymm0

; 22   : }

  0020c	49 8d a5 70 06
	00 00		 lea	 rsp, QWORD PTR [r13+1648]
  00213	5f		 pop	 rdi
  00214	5d		 pop	 rbp
  00215	41 5d		 pop	 r13
  00217	c3		 ret	 0
?MathI16_Iavx2@@YAXQEAUYmmVal@@PEBU1@1@Z ENDP		; MathI16_Iavx2
_TEXT	ENDS
; Function compile flags: /Odtp /RTCsu /ZI
; File C:\Program Files (x86)\Microsoft Visual Studio\2019\Community\VC\Tools\MSVC\14.29.30133\include\xloctime
;	COMDAT ??$_Getvals@_W@?$time_get@_WV?$istreambuf_iterator@_WU?$char_traits@_W@std@@@std@@@std@@IEAAX_WAEBV_Locinfo@1@@Z
_TEXT	SEGMENT
$T1 = 200
tv93 = 264
tv85 = 264
this$ = 304
__formal$ = 312
_Lobj$ = 320
??$_Getvals@_W@?$time_get@_WV?$istreambuf_iterator@_WU?$char_traits@_W@std@@@std@@@std@@IEAAX_WAEBV_Locinfo@1@@Z PROC ; std::time_get<wchar_t,std::istreambuf_iterator<wchar_t,std::char_traits<wchar_t> > >::_Getvals<wchar_t>, COMDAT

; 173  :     void __CLR_OR_THIS_CALL _Getvals(_Elem2, const _Locinfo& _Lobj) { // get values

$LN5:
  00000	4c 89 44 24 18	 mov	 QWORD PTR [rsp+24], r8
  00005	66 89 54 24 10	 mov	 WORD PTR [rsp+16], dx
  0000a	48 89 4c 24 08	 mov	 QWORD PTR [rsp+8], rcx
  0000f	55		 push	 rbp
  00010	56		 push	 rsi
  00011	57		 push	 rdi
  00012	48 81 ec 30 01
	00 00		 sub	 rsp, 304		; 00000130H
  00019	48 8d 6c 24 20	 lea	 rbp, QWORD PTR [rsp+32]
  0001e	48 8d 0d 00 00
	00 00		 lea	 rcx, OFFSET FLAT:__D96D2425_xloctime
  00025	e8 00 00 00 00	 call	 __CheckForDebuggerJustMyCode

; 174  :         _Cvt = _Lobj._Getcvt();

  0002a	48 8d 95 c8 00
	00 00		 lea	 rdx, QWORD PTR $T1[rbp]
  00031	48 8b 8d 40 01
	00 00		 mov	 rcx, QWORD PTR _Lobj$[rbp]
  00038	ff 15 00 00 00
	00		 call	 QWORD PTR __imp_?_Getcvt@_Locinfo@std@@QEBA?AU_Cvtvec@@XZ
  0003e	48 8b 8d 30 01
	00 00		 mov	 rcx, QWORD PTR this$[rbp]
  00045	48 8d 79 2c	 lea	 rdi, QWORD PTR [rcx+44]
  00049	48 8b f0	 mov	 rsi, rax
  0004c	b9 2c 00 00 00	 mov	 ecx, 44			; 0000002cH
  00051	f3 a4		 rep movsb

; 175  : 
; 176  :         if (is_same_v<_Elem2, wchar_t>) {

  00053	33 c0		 xor	 eax, eax
  00055	83 f8 01	 cmp	 eax, 1
  00058	74 5c		 je	 SHORT $LN2@Getvals

; 177  :             _Days = reinterpret_cast<const _Elem*>(_Maklocwcs(reinterpret_cast<const wchar_t*>(_Lobj._W_Getdays())));

  0005a	48 8b 8d 40 01
	00 00		 mov	 rcx, QWORD PTR _Lobj$[rbp]
  00061	ff 15 00 00 00
	00		 call	 QWORD PTR __imp_?_W_Getdays@_Locinfo@std@@QEBAPEBGXZ
  00067	48 8b c8	 mov	 rcx, rax
  0006a	e8 00 00 00 00	 call	 ?_Maklocwcs@std@@YAPEA_WPEB_W@Z ; std::_Maklocwcs
  0006f	48 8b 8d 30 01
	00 00		 mov	 rcx, QWORD PTR this$[rbp]
  00076	48 89 41 10	 mov	 QWORD PTR [rcx+16], rax

; 178  :             _Months =

  0007a	48 8b 8d 40 01
	00 00		 mov	 rcx, QWORD PTR _Lobj$[rbp]
  00081	ff 15 00 00 00
	00		 call	 QWORD PTR __imp_?_W_Getmonths@_Locinfo@std@@QEBAPEBGXZ
  00087	48 8b c8	 mov	 rcx, rax
  0008a	e8 00 00 00 00	 call	 ?_Maklocwcs@std@@YAPEA_WPEB_W@Z ; std::_Maklocwcs
  0008f	48 8b 8d 30 01
	00 00		 mov	 rcx, QWORD PTR this$[rbp]
  00096	48 89 41 18	 mov	 QWORD PTR [rcx+24], rax

; 179  :                 reinterpret_cast<const _Elem*>(_Maklocwcs(reinterpret_cast<const wchar_t*>(_Lobj._W_Getmonths())));
; 180  :             _Ampm = reinterpret_cast<const _Elem*>(_Maklocwcs(L":AM:am:PM:pm"));

  0009a	48 8d 0d 00 00
	00 00		 lea	 rcx, OFFSET FLAT:??_C@_1BK@MHIKGOKE@?$AA?3?$AAA?$AAM?$AA?3?$AAa?$AAm?$AA?3?$AAP?$AAM?$AA?3?$AAp?$AAm@
  000a1	e8 00 00 00 00	 call	 ?_Maklocwcs@std@@YAPEA_WPEB_W@Z ; std::_Maklocwcs
  000a6	48 8b 8d 30 01
	00 00		 mov	 rcx, QWORD PTR this$[rbp]
  000ad	48 89 41 20	 mov	 QWORD PTR [rcx+32], rax

; 181  :         } else {

  000b1	e9 a3 00 00 00	 jmp	 $LN3@Getvals
$LN2@Getvals:

; 182  :             _Days   = _Maklocstr(_Lobj._Getdays(), static_cast<_Elem*>(nullptr), _Cvt);

  000b6	48 8b 85 30 01
	00 00		 mov	 rax, QWORD PTR this$[rbp]
  000bd	48 83 c0 2c	 add	 rax, 44			; 0000002cH
  000c1	48 89 85 08 01
	00 00		 mov	 QWORD PTR tv85[rbp], rax
  000c8	48 8b 8d 40 01
	00 00		 mov	 rcx, QWORD PTR _Lobj$[rbp]
  000cf	ff 15 00 00 00
	00		 call	 QWORD PTR __imp_?_Getdays@_Locinfo@std@@QEBAPEBDXZ
  000d5	48 8b 8d 08 01
	00 00		 mov	 rcx, QWORD PTR tv85[rbp]
  000dc	4c 8b c1	 mov	 r8, rcx
  000df	33 d2		 xor	 edx, edx
  000e1	48 8b c8	 mov	 rcx, rax
  000e4	e8 00 00 00 00	 call	 ??$_Maklocstr@_W@std@@YAPEA_WPEBDPEA_WAEBU_Cvtvec@@@Z ; std::_Maklocstr<wchar_t>
  000e9	48 8b 8d 30 01
	00 00		 mov	 rcx, QWORD PTR this$[rbp]
  000f0	48 89 41 10	 mov	 QWORD PTR [rcx+16], rax

; 183  :             _Months = _Maklocstr(_Lobj._Getmonths(), static_cast<_Elem*>(nullptr), _Cvt);

  000f4	48 8b 85 30 01
	00 00		 mov	 rax, QWORD PTR this$[rbp]
  000fb	48 83 c0 2c	 add	 rax, 44			; 0000002cH
  000ff	48 89 85 08 01
	00 00		 mov	 QWORD PTR tv93[rbp], rax
  00106	48 8b 8d 40 01
	00 00		 mov	 rcx, QWORD PTR _Lobj$[rbp]
  0010d	ff 15 00 00 00
	00		 call	 QWORD PTR __imp_?_Getmonths@_Locinfo@std@@QEBAPEBDXZ
  00113	48 8b 8d 08 01
	00 00		 mov	 rcx, QWORD PTR tv93[rbp]
  0011a	4c 8b c1	 mov	 r8, rcx
  0011d	33 d2		 xor	 edx, edx
  0011f	48 8b c8	 mov	 rcx, rax
  00122	e8 00 00 00 00	 call	 ??$_Maklocstr@_W@std@@YAPEA_WPEBDPEA_WAEBU_Cvtvec@@@Z ; std::_Maklocstr<wchar_t>
  00127	48 8b 8d 30 01
	00 00		 mov	 rcx, QWORD PTR this$[rbp]
  0012e	48 89 41 18	 mov	 QWORD PTR [rcx+24], rax

; 184  :             _Ampm   = _Maklocstr(":AM:am:PM:pm", static_cast<_Elem*>(nullptr), _Cvt);

  00132	48 8b 85 30 01
	00 00		 mov	 rax, QWORD PTR this$[rbp]
  00139	48 83 c0 2c	 add	 rax, 44			; 0000002cH
  0013d	4c 8b c0	 mov	 r8, rax
  00140	33 d2		 xor	 edx, edx
  00142	48 8d 0d 00 00
	00 00		 lea	 rcx, OFFSET FLAT:??_C@_0N@LPFKKEBD@?3AM?3am?3PM?3pm@
  00149	e8 00 00 00 00	 call	 ??$_Maklocstr@_W@std@@YAPEA_WPEBDPEA_WAEBU_Cvtvec@@@Z ; std::_Maklocstr<wchar_t>
  0014e	48 8b 8d 30 01
	00 00		 mov	 rcx, QWORD PTR this$[rbp]
  00155	48 89 41 20	 mov	 QWORD PTR [rcx+32], rax
$LN3@Getvals:

; 185  :         }
; 186  :     }

  00159	48 8d a5 10 01
	00 00		 lea	 rsp, QWORD PTR [rbp+272]
  00160	5f		 pop	 rdi
  00161	5e		 pop	 rsi
  00162	5d		 pop	 rbp
  00163	c3		 ret	 0
??$_Getvals@_W@?$time_get@_WV?$istreambuf_iterator@_WU?$char_traits@_W@std@@@std@@@std@@IEAAX_WAEBV_Locinfo@1@@Z ENDP ; std::time_get<wchar_t,std::istreambuf_iterator<wchar_t,std::char_traits<wchar_t> > >::_Getvals<wchar_t>
_TEXT	ENDS
; Function compile flags: /Odtp /RTCsu /ZI
; File C:\Program Files (x86)\Microsoft Visual Studio\2019\Community\VC\Tools\MSVC\14.29.30133\include\xloctime
;	COMDAT ??$_Getvals@_W@?$time_get@DV?$istreambuf_iterator@DU?$char_traits@D@std@@@std@@@std@@IEAAX_WAEBV_Locinfo@1@@Z
_TEXT	SEGMENT
$T1 = 200
tv93 = 264
tv85 = 264
this$ = 304
__formal$ = 312
_Lobj$ = 320
??$_Getvals@_W@?$time_get@DV?$istreambuf_iterator@DU?$char_traits@D@std@@@std@@@std@@IEAAX_WAEBV_Locinfo@1@@Z PROC ; std::time_get<char,std::istreambuf_iterator<char,std::char_traits<char> > >::_Getvals<wchar_t>, COMDAT

; 173  :     void __CLR_OR_THIS_CALL _Getvals(_Elem2, const _Locinfo& _Lobj) { // get values

$LN5:
  00000	4c 89 44 24 18	 mov	 QWORD PTR [rsp+24], r8
  00005	66 89 54 24 10	 mov	 WORD PTR [rsp+16], dx
  0000a	48 89 4c 24 08	 mov	 QWORD PTR [rsp+8], rcx
  0000f	55		 push	 rbp
  00010	56		 push	 rsi
  00011	57		 push	 rdi
  00012	48 81 ec 30 01
	00 00		 sub	 rsp, 304		; 00000130H
  00019	48 8d 6c 24 20	 lea	 rbp, QWORD PTR [rsp+32]
  0001e	48 8d 0d 00 00
	00 00		 lea	 rcx, OFFSET FLAT:__D96D2425_xloctime
  00025	e8 00 00 00 00	 call	 __CheckForDebuggerJustMyCode

; 174  :         _Cvt = _Lobj._Getcvt();

  0002a	48 8d 95 c8 00
	00 00		 lea	 rdx, QWORD PTR $T1[rbp]
  00031	48 8b 8d 40 01
	00 00		 mov	 rcx, QWORD PTR _Lobj$[rbp]
  00038	ff 15 00 00 00
	00		 call	 QWORD PTR __imp_?_Getcvt@_Locinfo@std@@QEBA?AU_Cvtvec@@XZ
  0003e	48 8b 8d 30 01
	00 00		 mov	 rcx, QWORD PTR this$[rbp]
  00045	48 8d 79 2c	 lea	 rdi, QWORD PTR [rcx+44]
  00049	48 8b f0	 mov	 rsi, rax
  0004c	b9 2c 00 00 00	 mov	 ecx, 44			; 0000002cH
  00051	f3 a4		 rep movsb

; 175  : 
; 176  :         if (is_same_v<_Elem2, wchar_t>) {

  00053	33 c0		 xor	 eax, eax
  00055	83 f8 01	 cmp	 eax, 1
  00058	74 5c		 je	 SHORT $LN2@Getvals

; 177  :             _Days = reinterpret_cast<const _Elem*>(_Maklocwcs(reinterpret_cast<const wchar_t*>(_Lobj._W_Getdays())));

  0005a	48 8b 8d 40 01
	00 00		 mov	 rcx, QWORD PTR _Lobj$[rbp]
  00061	ff 15 00 00 00
	00		 call	 QWORD PTR __imp_?_W_Getdays@_Locinfo@std@@QEBAPEBGXZ
  00067	48 8b c8	 mov	 rcx, rax
  0006a	e8 00 00 00 00	 call	 ?_Maklocwcs@std@@YAPEA_WPEB_W@Z ; std::_Maklocwcs
  0006f	48 8b 8d 30 01
	00 00		 mov	 rcx, QWORD PTR this$[rbp]
  00076	48 89 41 10	 mov	 QWORD PTR [rcx+16], rax

; 178  :             _Months =

  0007a	48 8b 8d 40 01
	00 00		 mov	 rcx, QWORD PTR _Lobj$[rbp]
  00081	ff 15 00 00 00
	00		 call	 QWORD PTR __imp_?_W_Getmonths@_Locinfo@std@@QEBAPEBGXZ
  00087	48 8b c8	 mov	 rcx, rax
  0008a	e8 00 00 00 00	 call	 ?_Maklocwcs@std@@YAPEA_WPEB_W@Z ; std::_Maklocwcs
  0008f	48 8b 8d 30 01
	00 00		 mov	 rcx, QWORD PTR this$[rbp]
  00096	48 89 41 18	 mov	 QWORD PTR [rcx+24], rax

; 179  :                 reinterpret_cast<const _Elem*>(_Maklocwcs(reinterpret_cast<const wchar_t*>(_Lobj._W_Getmonths())));
; 180  :             _Ampm = reinterpret_cast<const _Elem*>(_Maklocwcs(L":AM:am:PM:pm"));

  0009a	48 8d 0d 00 00
	00 00		 lea	 rcx, OFFSET FLAT:??_C@_1BK@MHIKGOKE@?$AA?3?$AAA?$AAM?$AA?3?$AAa?$AAm?$AA?3?$AAP?$AAM?$AA?3?$AAp?$AAm@
  000a1	e8 00 00 00 00	 call	 ?_Maklocwcs@std@@YAPEA_WPEB_W@Z ; std::_Maklocwcs
  000a6	48 8b 8d 30 01
	00 00		 mov	 rcx, QWORD PTR this$[rbp]
  000ad	48 89 41 20	 mov	 QWORD PTR [rcx+32], rax

; 181  :         } else {

  000b1	e9 a3 00 00 00	 jmp	 $LN3@Getvals
$LN2@Getvals:

; 182  :             _Days   = _Maklocstr(_Lobj._Getdays(), static_cast<_Elem*>(nullptr), _Cvt);

  000b6	48 8b 85 30 01
	00 00		 mov	 rax, QWORD PTR this$[rbp]
  000bd	48 83 c0 2c	 add	 rax, 44			; 0000002cH
  000c1	48 89 85 08 01
	00 00		 mov	 QWORD PTR tv85[rbp], rax
  000c8	48 8b 8d 40 01
	00 00		 mov	 rcx, QWORD PTR _Lobj$[rbp]
  000cf	ff 15 00 00 00
	00		 call	 QWORD PTR __imp_?_Getdays@_Locinfo@std@@QEBAPEBDXZ
  000d5	48 8b 8d 08 01
	00 00		 mov	 rcx, QWORD PTR tv85[rbp]
  000dc	4c 8b c1	 mov	 r8, rcx
  000df	33 d2		 xor	 edx, edx
  000e1	48 8b c8	 mov	 rcx, rax
  000e4	e8 00 00 00 00	 call	 ??$_Maklocstr@D@std@@YAPEADPEBDPEADAEBU_Cvtvec@@@Z ; std::_Maklocstr<char>
  000e9	48 8b 8d 30 01
	00 00		 mov	 rcx, QWORD PTR this$[rbp]
  000f0	48 89 41 10	 mov	 QWORD PTR [rcx+16], rax

; 183  :             _Months = _Maklocstr(_Lobj._Getmonths(), static_cast<_Elem*>(nullptr), _Cvt);

  000f4	48 8b 85 30 01
	00 00		 mov	 rax, QWORD PTR this$[rbp]
  000fb	48 83 c0 2c	 add	 rax, 44			; 0000002cH
  000ff	48 89 85 08 01
	00 00		 mov	 QWORD PTR tv93[rbp], rax
  00106	48 8b 8d 40 01
	00 00		 mov	 rcx, QWORD PTR _Lobj$[rbp]
  0010d	ff 15 00 00 00
	00		 call	 QWORD PTR __imp_?_Getmonths@_Locinfo@std@@QEBAPEBDXZ
  00113	48 8b 8d 08 01
	00 00		 mov	 rcx, QWORD PTR tv93[rbp]
  0011a	4c 8b c1	 mov	 r8, rcx
  0011d	33 d2		 xor	 edx, edx
  0011f	48 8b c8	 mov	 rcx, rax
  00122	e8 00 00 00 00	 call	 ??$_Maklocstr@D@std@@YAPEADPEBDPEADAEBU_Cvtvec@@@Z ; std::_Maklocstr<char>
  00127	48 8b 8d 30 01
	00 00		 mov	 rcx, QWORD PTR this$[rbp]
  0012e	48 89 41 18	 mov	 QWORD PTR [rcx+24], rax

; 184  :             _Ampm   = _Maklocstr(":AM:am:PM:pm", static_cast<_Elem*>(nullptr), _Cvt);

  00132	48 8b 85 30 01
	00 00		 mov	 rax, QWORD PTR this$[rbp]
  00139	48 83 c0 2c	 add	 rax, 44			; 0000002cH
  0013d	4c 8b c0	 mov	 r8, rax
  00140	33 d2		 xor	 edx, edx
  00142	48 8d 0d 00 00
	00 00		 lea	 rcx, OFFSET FLAT:??_C@_0N@LPFKKEBD@?3AM?3am?3PM?3pm@
  00149	e8 00 00 00 00	 call	 ??$_Maklocstr@D@std@@YAPEADPEBDPEADAEBU_Cvtvec@@@Z ; std::_Maklocstr<char>
  0014e	48 8b 8d 30 01
	00 00		 mov	 rcx, QWORD PTR this$[rbp]
  00155	48 89 41 20	 mov	 QWORD PTR [rcx+32], rax
$LN3@Getvals:

; 185  :         }
; 186  :     }

  00159	48 8d a5 10 01
	00 00		 lea	 rsp, QWORD PTR [rbp+272]
  00160	5f		 pop	 rdi
  00161	5e		 pop	 rsi
  00162	5d		 pop	 rbp
  00163	c3		 ret	 0
??$_Getvals@_W@?$time_get@DV?$istreambuf_iterator@DU?$char_traits@D@std@@@std@@@std@@IEAAX_WAEBV_Locinfo@1@@Z ENDP ; std::time_get<char,std::istreambuf_iterator<char,std::char_traits<char> > >::_Getvals<wchar_t>
_TEXT	ENDS
; Function compile flags: /Odtp /RTCsu /ZI
; File C:\Program Files (x86)\Microsoft Visual Studio\2019\Community\VC\Tools\MSVC\14.29.30133\include\xlocale
;	COMDAT ??$_Maklocstr@D@std@@YAPEADPEBDPEADAEBU_Cvtvec@@@Z
_TEXT	SEGMENT
_Count$ = 8
_Ptrdest$ = 40
_Ptrnext$1 = 72
_Ptr$ = 320
__formal$ = 328
__formal$ = 336
??$_Maklocstr@D@std@@YAPEADPEBDPEADAEBU_Cvtvec@@@Z PROC	; std::_Maklocstr<char>, COMDAT

; 522  : _Elem* __CRTDECL _Maklocstr(const char* _Ptr, _Elem*, const _Locinfo::_Cvtvec&) {

$LN7:
  00000	4c 89 44 24 18	 mov	 QWORD PTR [rsp+24], r8
  00005	48 89 54 24 10	 mov	 QWORD PTR [rsp+16], rdx
  0000a	48 89 4c 24 08	 mov	 QWORD PTR [rsp+8], rcx
  0000f	55		 push	 rbp
  00010	57		 push	 rdi
  00011	48 81 ec 58 01
	00 00		 sub	 rsp, 344		; 00000158H
  00018	48 8d 6c 24 30	 lea	 rbp, QWORD PTR [rsp+48]
  0001d	48 8d 0d 00 00
	00 00		 lea	 rcx, OFFSET FLAT:__D23FE460_xlocale
  00024	e8 00 00 00 00	 call	 __CheckForDebuggerJustMyCode

; 523  :     // convert C string to _Elem sequence using _Cvtvec
; 524  :     size_t _Count = _CSTD strlen(_Ptr) + 1;

  00029	48 8b 8d 40 01
	00 00		 mov	 rcx, QWORD PTR _Ptr$[rbp]
  00030	e8 00 00 00 00	 call	 strlen
  00035	48 ff c0	 inc	 rax
  00038	48 89 45 08	 mov	 QWORD PTR _Count$[rbp], rax

; 525  : 
; 526  :     _Elem* _Ptrdest = static_cast<_Elem*>(_calloc_dbg(_Count, sizeof(_Elem), _CRT_BLOCK, __FILE__, __LINE__));

  0003c	c7 44 24 20 0e
	02 00 00	 mov	 DWORD PTR [rsp+32], 526	; 0000020eH
  00044	4c 8d 0d 00 00
	00 00		 lea	 r9, OFFSET FLAT:??_C@_0GI@GFIAKDGM@C?3?2Program?5Files?5?$CIx86?$CJ?2Microsof@
  0004b	41 b8 02 00 00
	00		 mov	 r8d, 2
  00051	ba 01 00 00 00	 mov	 edx, 1
  00056	48 8b 4d 08	 mov	 rcx, QWORD PTR _Count$[rbp]
  0005a	ff 15 00 00 00
	00		 call	 QWORD PTR __imp__calloc_dbg
  00060	48 89 45 28	 mov	 QWORD PTR _Ptrdest$[rbp], rax

; 527  : 
; 528  :     if (!_Ptrdest) {

  00064	48 83 7d 28 00	 cmp	 QWORD PTR _Ptrdest$[rbp], 0
  00069	75 05		 jne	 SHORT $LN5@Maklocstr

; 529  :         _Xbad_alloc();

  0006b	e8 00 00 00 00	 call	 ?_Xbad_alloc@std@@YAXXZ	; std::_Xbad_alloc
$LN5@Maklocstr:

; 530  :     }
; 531  : 
; 532  :     for (_Elem* _Ptrnext = _Ptrdest; 0 < _Count; --_Count, ++_Ptrnext, ++_Ptr) {

  00070	48 8b 45 28	 mov	 rax, QWORD PTR _Ptrdest$[rbp]
  00074	48 89 45 48	 mov	 QWORD PTR _Ptrnext$1[rbp], rax
  00078	eb 27		 jmp	 SHORT $LN4@Maklocstr
$LN2@Maklocstr:
  0007a	48 8b 45 08	 mov	 rax, QWORD PTR _Count$[rbp]
  0007e	48 ff c8	 dec	 rax
  00081	48 89 45 08	 mov	 QWORD PTR _Count$[rbp], rax
  00085	48 8b 45 48	 mov	 rax, QWORD PTR _Ptrnext$1[rbp]
  00089	48 ff c0	 inc	 rax
  0008c	48 89 45 48	 mov	 QWORD PTR _Ptrnext$1[rbp], rax
  00090	48 8b 85 40 01
	00 00		 mov	 rax, QWORD PTR _Ptr$[rbp]
  00097	48 ff c0	 inc	 rax
  0009a	48 89 85 40 01
	00 00		 mov	 QWORD PTR _Ptr$[rbp], rax
$LN4@Maklocstr:
  000a1	48 83 7d 08 00	 cmp	 QWORD PTR _Count$[rbp], 0
  000a6	76 12		 jbe	 SHORT $LN3@Maklocstr

; 533  :         *_Ptrnext = static_cast<_Elem>(static_cast<unsigned char>(*_Ptr));

  000a8	48 8b 45 48	 mov	 rax, QWORD PTR _Ptrnext$1[rbp]
  000ac	48 8b 8d 40 01
	00 00		 mov	 rcx, QWORD PTR _Ptr$[rbp]
  000b3	0f b6 09	 movzx	 ecx, BYTE PTR [rcx]
  000b6	88 08		 mov	 BYTE PTR [rax], cl

; 534  :     }

  000b8	eb c0		 jmp	 SHORT $LN2@Maklocstr
$LN3@Maklocstr:

; 535  : 
; 536  :     return _Ptrdest;

  000ba	48 8b 45 28	 mov	 rax, QWORD PTR _Ptrdest$[rbp]
$LN6@Maklocstr:

; 537  : }

  000be	48 8d a5 28 01
	00 00		 lea	 rsp, QWORD PTR [rbp+296]
  000c5	5f		 pop	 rdi
  000c6	5d		 pop	 rbp
  000c7	c3		 ret	 0
??$_Maklocstr@D@std@@YAPEADPEBDPEADAEBU_Cvtvec@@@Z ENDP	; std::_Maklocstr<char>
_TEXT	ENDS
; Function compile flags: /Odtp /RTCsu /ZI
; File C:\Program Files (x86)\Microsoft Visual Studio\2019\Community\VC\Tools\MSVC\14.29.30133\include\xlocnum
;	COMDAT ?_Maklocwcs@std@@YAPEA_WPEB_W@Z
_TEXT	SEGMENT
_Count$ = 8
_Ptrdest$ = 40
_Ptr$ = 288
?_Maklocwcs@std@@YAPEA_WPEB_W@Z PROC			; std::_Maklocwcs, COMDAT

; 90   : inline wchar_t* _Maklocwcs(const wchar_t* _Ptr) { // copy NTWCS to allocated storage

$LN4:
  00000	48 89 4c 24 08	 mov	 QWORD PTR [rsp+8], rcx
  00005	55		 push	 rbp
  00006	57		 push	 rdi
  00007	48 81 ec 38 01
	00 00		 sub	 rsp, 312		; 00000138H
  0000e	48 8d 6c 24 30	 lea	 rbp, QWORD PTR [rsp+48]
  00013	48 8d 0d 00 00
	00 00		 lea	 rcx, OFFSET FLAT:__4CB88277_xlocnum
  0001a	e8 00 00 00 00	 call	 __CheckForDebuggerJustMyCode

; 91   :     const size_t _Count = _CSTD wcslen(_Ptr) + 1;

  0001f	48 8b 8d 20 01
	00 00		 mov	 rcx, QWORD PTR _Ptr$[rbp]
  00026	ff 15 00 00 00
	00		 call	 QWORD PTR __imp_wcslen
  0002c	48 ff c0	 inc	 rax
  0002f	48 89 45 08	 mov	 QWORD PTR _Count$[rbp], rax

; 92   : 
; 93   :     wchar_t* _Ptrdest = static_cast<wchar_t*>(_calloc_dbg(_Count, sizeof(wchar_t), _CRT_BLOCK, __FILE__, __LINE__));

  00033	8b 05 00 00 00
	00		 mov	 eax, DWORD PTR ?__LINE__Var@?0??_Maklocwcs@std@@YAPEA_WPEB_W@Z@4JA
  00039	83 c0 03	 add	 eax, 3
  0003c	89 44 24 20	 mov	 DWORD PTR [rsp+32], eax
  00040	4c 8d 0d 00 00
	00 00		 lea	 r9, OFFSET FLAT:??_C@_0GI@OGMNKBMN@C?3?2Program?5Files?5?$CIx86?$CJ?2Microsof@
  00047	41 b8 02 00 00
	00		 mov	 r8d, 2
  0004d	ba 02 00 00 00	 mov	 edx, 2
  00052	48 8b 4d 08	 mov	 rcx, QWORD PTR _Count$[rbp]
  00056	ff 15 00 00 00
	00		 call	 QWORD PTR __imp__calloc_dbg
  0005c	48 89 45 28	 mov	 QWORD PTR _Ptrdest$[rbp], rax

; 94   : 
; 95   :     if (!_Ptrdest) {

  00060	48 83 7d 28 00	 cmp	 QWORD PTR _Ptrdest$[rbp], 0
  00065	75 05		 jne	 SHORT $LN2@Maklocwcs

; 96   :         _Xbad_alloc();

  00067	e8 00 00 00 00	 call	 ?_Xbad_alloc@std@@YAXXZ	; std::_Xbad_alloc
$LN2@Maklocwcs:

; 97   :     }
; 98   : 
; 99   :     _CSTD wmemcpy(_Ptrdest, _Ptr, _Count);

  0006c	4c 8b 45 08	 mov	 r8, QWORD PTR _Count$[rbp]
  00070	48 8b 95 20 01
	00 00		 mov	 rdx, QWORD PTR _Ptr$[rbp]
  00077	48 8b 4d 28	 mov	 rcx, QWORD PTR _Ptrdest$[rbp]
  0007b	e8 00 00 00 00	 call	 wmemcpy

; 100  :     return _Ptrdest;

  00080	48 8b 45 28	 mov	 rax, QWORD PTR _Ptrdest$[rbp]
$LN3@Maklocwcs:

; 101  : }

  00084	48 8d a5 08 01
	00 00		 lea	 rsp, QWORD PTR [rbp+264]
  0008b	5f		 pop	 rdi
  0008c	5d		 pop	 rbp
  0008d	c3		 ret	 0
?_Maklocwcs@std@@YAPEA_WPEB_W@Z ENDP			; std::_Maklocwcs
_TEXT	ENDS
; Function compile flags: /Odtp /RTCsu /ZI
; File C:\Program Files (x86)\Microsoft Visual Studio\2019\Community\VC\Tools\MSVC\14.29.30133\include\xlocale
;	COMDAT ??$_Maklocstr@_W@std@@YAPEA_WPEBDPEA_WAEBU_Cvtvec@@@Z
_TEXT	SEGMENT
_Count$ = 8
_Count1$ = 40
_Wchars$ = 72
_Ptr1$ = 104
_Bytes$ = 132
_Wc$ = 164
_Mbst1$ = 200
_Ptrdest$ = 232
_Ptrnext$ = 264
_Mbst2$ = 296
__$ArrayPad$ = 504
_Ptr$ = 544
__formal$ = 552
_Cvt$ = 560
??$_Maklocstr@_W@std@@YAPEA_WPEBDPEA_WAEBU_Cvtvec@@@Z PROC ; std::_Maklocstr<wchar_t>, COMDAT

; 540  : inline wchar_t* __CRTDECL _Maklocstr(const char* _Ptr, wchar_t*, const _Locinfo::_Cvtvec& _Cvt) {

$LN12:
  00000	4c 89 44 24 18	 mov	 QWORD PTR [rsp+24], r8
  00005	48 89 54 24 10	 mov	 QWORD PTR [rsp+16], rdx
  0000a	48 89 4c 24 08	 mov	 QWORD PTR [rsp+8], rcx
  0000f	55		 push	 rbp
  00010	57		 push	 rdi
  00011	48 81 ec 38 02
	00 00		 sub	 rsp, 568		; 00000238H
  00018	48 8d 6c 24 30	 lea	 rbp, QWORD PTR [rsp+48]
  0001d	48 8d 7c 24 30	 lea	 rdi, QWORD PTR [rsp+48]
  00022	b9 52 00 00 00	 mov	 ecx, 82			; 00000052H
  00027	b8 cc cc cc cc	 mov	 eax, -858993460		; ccccccccH
  0002c	f3 ab		 rep stosd
  0002e	48 8b 8c 24 58
	02 00 00	 mov	 rcx, QWORD PTR [rsp+600]
  00036	48 8b 05 00 00
	00 00		 mov	 rax, QWORD PTR __security_cookie
  0003d	48 33 c5	 xor	 rax, rbp
  00040	48 89 85 f8 01
	00 00		 mov	 QWORD PTR __$ArrayPad$[rbp], rax
  00047	48 8d 0d 00 00
	00 00		 lea	 rcx, OFFSET FLAT:__D23FE460_xlocale
  0004e	e8 00 00 00 00	 call	 __CheckForDebuggerJustMyCode

; 541  :     // convert C string to wchar_t sequence using _Cvtvec
; 542  :     size_t _Count;
; 543  :     size_t _Count1;
; 544  :     size_t _Wchars;
; 545  :     const char* _Ptr1;
; 546  :     int _Bytes;
; 547  :     wchar_t _Wc;
; 548  :     mbstate_t _Mbst1 = {};

  00053	48 8d 85 c8 00
	00 00		 lea	 rax, QWORD PTR _Mbst1$[rbp]
  0005a	48 8b f8	 mov	 rdi, rax
  0005d	33 c0		 xor	 eax, eax
  0005f	b9 08 00 00 00	 mov	 ecx, 8
  00064	f3 aa		 rep stosb

; 549  : 
; 550  :     _Count1 = _CSTD strlen(_Ptr) + 1;

  00066	48 8b 8d 20 02
	00 00		 mov	 rcx, QWORD PTR _Ptr$[rbp]
  0006d	e8 00 00 00 00	 call	 strlen
  00072	48 ff c0	 inc	 rax
  00075	48 89 45 28	 mov	 QWORD PTR _Count1$[rbp], rax

; 551  :     for (_Count = _Count1, _Wchars = 0, _Ptr1 = _Ptr; 0 < _Count; _Count -= _Bytes, _Ptr1 += _Bytes, ++_Wchars) {

  00079	48 8b 45 28	 mov	 rax, QWORD PTR _Count1$[rbp]
  0007d	48 89 45 08	 mov	 QWORD PTR _Count$[rbp], rax
  00081	48 c7 45 48 00
	00 00 00	 mov	 QWORD PTR _Wchars$[rbp], 0
  00089	48 8b 85 20 02
	00 00		 mov	 rax, QWORD PTR _Ptr$[rbp]
  00090	48 89 45 68	 mov	 QWORD PTR _Ptr1$[rbp], rax
  00094	eb 35		 jmp	 SHORT $LN4@Maklocstr
$LN2@Maklocstr:
  00096	48 63 85 84 00
	00 00		 movsxd	 rax, DWORD PTR _Bytes$[rbp]
  0009d	48 8b 4d 08	 mov	 rcx, QWORD PTR _Count$[rbp]
  000a1	48 2b c8	 sub	 rcx, rax
  000a4	48 8b c1	 mov	 rax, rcx
  000a7	48 89 45 08	 mov	 QWORD PTR _Count$[rbp], rax
  000ab	48 63 85 84 00
	00 00		 movsxd	 rax, DWORD PTR _Bytes$[rbp]
  000b2	48 8b 4d 68	 mov	 rcx, QWORD PTR _Ptr1$[rbp]
  000b6	48 03 c8	 add	 rcx, rax
  000b9	48 8b c1	 mov	 rax, rcx
  000bc	48 89 45 68	 mov	 QWORD PTR _Ptr1$[rbp], rax
  000c0	48 8b 45 48	 mov	 rax, QWORD PTR _Wchars$[rbp]
  000c4	48 ff c0	 inc	 rax
  000c7	48 89 45 48	 mov	 QWORD PTR _Wchars$[rbp], rax
$LN4@Maklocstr:
  000cb	48 83 7d 08 00	 cmp	 QWORD PTR _Count$[rbp], 0
  000d0	76 3a		 jbe	 SHORT $LN3@Maklocstr

; 552  :         if ((_Bytes = _Mbrtowc(&_Wc, _Ptr1, _Count, &_Mbst1, &_Cvt)) <= 0) {

  000d2	48 8b 85 30 02
	00 00		 mov	 rax, QWORD PTR _Cvt$[rbp]
  000d9	48 89 44 24 20	 mov	 QWORD PTR [rsp+32], rax
  000de	4c 8d 8d c8 00
	00 00		 lea	 r9, QWORD PTR _Mbst1$[rbp]
  000e5	4c 8b 45 08	 mov	 r8, QWORD PTR _Count$[rbp]
  000e9	48 8b 55 68	 mov	 rdx, QWORD PTR _Ptr1$[rbp]
  000ed	48 8d 8d a4 00
	00 00		 lea	 rcx, QWORD PTR _Wc$[rbp]
  000f4	e8 00 00 00 00	 call	 _Mbrtowc
  000f9	89 85 84 00 00
	00		 mov	 DWORD PTR _Bytes$[rbp], eax
  000ff	83 bd 84 00 00
	00 00		 cmp	 DWORD PTR _Bytes$[rbp], 0
  00106	7f 02		 jg	 SHORT $LN8@Maklocstr

; 553  :             break;

  00108	eb 02		 jmp	 SHORT $LN3@Maklocstr
$LN8@Maklocstr:

; 554  :         }
; 555  :     }

  0010a	eb 8a		 jmp	 SHORT $LN2@Maklocstr
$LN3@Maklocstr:

; 556  : 
; 557  :     ++_Wchars; // count terminating nul

  0010c	48 8b 45 48	 mov	 rax, QWORD PTR _Wchars$[rbp]
  00110	48 ff c0	 inc	 rax
  00113	48 89 45 48	 mov	 QWORD PTR _Wchars$[rbp], rax

; 558  : 
; 559  :     wchar_t* _Ptrdest = static_cast<wchar_t*>(_calloc_dbg(_Wchars, sizeof(wchar_t), _CRT_BLOCK, __FILE__, __LINE__));

  00117	c7 44 24 20 2f
	02 00 00	 mov	 DWORD PTR [rsp+32], 559	; 0000022fH
  0011f	4c 8d 0d 00 00
	00 00		 lea	 r9, OFFSET FLAT:??_C@_0GI@GFIAKDGM@C?3?2Program?5Files?5?$CIx86?$CJ?2Microsof@
  00126	41 b8 02 00 00
	00		 mov	 r8d, 2
  0012c	ba 02 00 00 00	 mov	 edx, 2
  00131	48 8b 4d 48	 mov	 rcx, QWORD PTR _Wchars$[rbp]
  00135	ff 15 00 00 00
	00		 call	 QWORD PTR __imp__calloc_dbg
  0013b	48 89 85 e8 00
	00 00		 mov	 QWORD PTR _Ptrdest$[rbp], rax

; 560  : 
; 561  :     if (!_Ptrdest) {

  00142	48 83 bd e8 00
	00 00 00	 cmp	 QWORD PTR _Ptrdest$[rbp], 0
  0014a	75 05		 jne	 SHORT $LN9@Maklocstr

; 562  :         _Xbad_alloc();

  0014c	e8 00 00 00 00	 call	 ?_Xbad_alloc@std@@YAXXZ	; std::_Xbad_alloc
$LN9@Maklocstr:

; 563  :     }
; 564  : 
; 565  :     wchar_t* _Ptrnext = _Ptrdest;

  00151	48 8b 85 e8 00
	00 00		 mov	 rax, QWORD PTR _Ptrdest$[rbp]
  00158	48 89 85 08 01
	00 00		 mov	 QWORD PTR _Ptrnext$[rbp], rax

; 566  :     mbstate_t _Mbst2  = {};

  0015f	48 8d 85 28 01
	00 00		 lea	 rax, QWORD PTR _Mbst2$[rbp]
  00166	48 8b f8	 mov	 rdi, rax
  00169	33 c0		 xor	 eax, eax
  0016b	b9 08 00 00 00	 mov	 ecx, 8
  00170	f3 aa		 rep stosb

; 567  : 
; 568  :     for (; 0 < _Wchars; _Count -= _Bytes, _Ptr += _Bytes, --_Wchars, ++_Ptrnext) {

  00172	eb 4d		 jmp	 SHORT $LN7@Maklocstr
$LN5@Maklocstr:
  00174	48 63 85 84 00
	00 00		 movsxd	 rax, DWORD PTR _Bytes$[rbp]
  0017b	48 8b 4d 08	 mov	 rcx, QWORD PTR _Count$[rbp]
  0017f	48 2b c8	 sub	 rcx, rax
  00182	48 8b c1	 mov	 rax, rcx
  00185	48 89 45 08	 mov	 QWORD PTR _Count$[rbp], rax
  00189	48 63 85 84 00
	00 00		 movsxd	 rax, DWORD PTR _Bytes$[rbp]
  00190	48 8b 8d 20 02
	00 00		 mov	 rcx, QWORD PTR _Ptr$[rbp]
  00197	48 03 c8	 add	 rcx, rax
  0019a	48 8b c1	 mov	 rax, rcx
  0019d	48 89 85 20 02
	00 00		 mov	 QWORD PTR _Ptr$[rbp], rax
  001a4	48 8b 45 48	 mov	 rax, QWORD PTR _Wchars$[rbp]
  001a8	48 ff c8	 dec	 rax
  001ab	48 89 45 48	 mov	 QWORD PTR _Wchars$[rbp], rax
  001af	48 8b 85 08 01
	00 00		 mov	 rax, QWORD PTR _Ptrnext$[rbp]
  001b6	48 83 c0 02	 add	 rax, 2
  001ba	48 89 85 08 01
	00 00		 mov	 QWORD PTR _Ptrnext$[rbp], rax
$LN7@Maklocstr:
  001c1	48 83 7d 48 00	 cmp	 QWORD PTR _Wchars$[rbp], 0
  001c6	76 40		 jbe	 SHORT $LN6@Maklocstr

; 569  :         if ((_Bytes = _Mbrtowc(_Ptrnext, _Ptr, _Count1, &_Mbst2, &_Cvt)) <= 0) {

  001c8	48 8b 85 30 02
	00 00		 mov	 rax, QWORD PTR _Cvt$[rbp]
  001cf	48 89 44 24 20	 mov	 QWORD PTR [rsp+32], rax
  001d4	4c 8d 8d 28 01
	00 00		 lea	 r9, QWORD PTR _Mbst2$[rbp]
  001db	4c 8b 45 28	 mov	 r8, QWORD PTR _Count1$[rbp]
  001df	48 8b 95 20 02
	00 00		 mov	 rdx, QWORD PTR _Ptr$[rbp]
  001e6	48 8b 8d 08 01
	00 00		 mov	 rcx, QWORD PTR _Ptrnext$[rbp]
  001ed	e8 00 00 00 00	 call	 _Mbrtowc
  001f2	89 85 84 00 00
	00		 mov	 DWORD PTR _Bytes$[rbp], eax
  001f8	83 bd 84 00 00
	00 00		 cmp	 DWORD PTR _Bytes$[rbp], 0
  001ff	7f 02		 jg	 SHORT $LN10@Maklocstr

; 570  :             break;

  00201	eb 05		 jmp	 SHORT $LN6@Maklocstr
$LN10@Maklocstr:

; 571  :         }
; 572  :     }

  00203	e9 6c ff ff ff	 jmp	 $LN5@Maklocstr
$LN6@Maklocstr:

; 573  : 
; 574  :     *_Ptrnext = L'\0';

  00208	33 c0		 xor	 eax, eax
  0020a	48 8b 8d 08 01
	00 00		 mov	 rcx, QWORD PTR _Ptrnext$[rbp]
  00211	66 89 01	 mov	 WORD PTR [rcx], ax

; 575  : 
; 576  :     return _Ptrdest;

  00214	48 8b 85 e8 00
	00 00		 mov	 rax, QWORD PTR _Ptrdest$[rbp]
$LN11@Maklocstr:

; 577  : }

  0021b	48 8b f8	 mov	 rdi, rax
  0021e	48 8d 4d d0	 lea	 rcx, QWORD PTR [rbp-48]
  00222	48 8d 15 00 00
	00 00		 lea	 rdx, OFFSET FLAT:??$_Maklocstr@_W@std@@YAPEA_WPEBDPEA_WAEBU_Cvtvec@@@Z$rtcFrameData
  00229	e8 00 00 00 00	 call	 _RTC_CheckStackVars
  0022e	48 8b c7	 mov	 rax, rdi
  00231	48 8b 8d f8 01
	00 00		 mov	 rcx, QWORD PTR __$ArrayPad$[rbp]
  00238	48 33 cd	 xor	 rcx, rbp
  0023b	e8 00 00 00 00	 call	 __security_check_cookie
  00240	48 8d a5 08 02
	00 00		 lea	 rsp, QWORD PTR [rbp+520]
  00247	5f		 pop	 rdi
  00248	5d		 pop	 rbp
  00249	c3		 ret	 0
??$_Maklocstr@_W@std@@YAPEA_WPEBDPEA_WAEBU_Cvtvec@@@Z ENDP ; std::_Maklocstr<wchar_t>
_TEXT	ENDS
; Function compile flags: /Odtp /RTCsu /ZI
; File C:\Program Files (x86)\Windows Kits\10\Include\10.0.19041.0\ucrt\wchar.h
;	COMDAT wmemcpy
_TEXT	SEGMENT
_S1$ = 224
_S2$ = 232
_N$ = 240
wmemcpy	PROC						; COMDAT

; 234  :     {

$LN3:
  00000	4c 89 44 24 18	 mov	 QWORD PTR [rsp+24], r8
  00005	48 89 54 24 10	 mov	 QWORD PTR [rsp+16], rdx
  0000a	48 89 4c 24 08	 mov	 QWORD PTR [rsp+8], rcx
  0000f	55		 push	 rbp
  00010	57		 push	 rdi
  00011	48 81 ec e8 00
	00 00		 sub	 rsp, 232		; 000000e8H
  00018	48 8d 6c 24 20	 lea	 rbp, QWORD PTR [rsp+32]
  0001d	48 8d 0d 00 00
	00 00		 lea	 rcx, OFFSET FLAT:__93DC0B45_wchar@h
  00024	e8 00 00 00 00	 call	 __CheckForDebuggerJustMyCode

; 235  :         #pragma warning(suppress: 6386) // Buffer overrun
; 236  :         return (wchar_t*)memcpy(_S1, _S2, _N*sizeof(wchar_t));

  00029	48 8b 85 f0 00
	00 00		 mov	 rax, QWORD PTR _N$[rbp]
  00030	48 d1 e0	 shl	 rax, 1
  00033	4c 8b c0	 mov	 r8, rax
  00036	48 8b 95 e8 00
	00 00		 mov	 rdx, QWORD PTR _S2$[rbp]
  0003d	48 8b 8d e0 00
	00 00		 mov	 rcx, QWORD PTR _S1$[rbp]
  00044	e8 00 00 00 00	 call	 memcpy

; 237  :     }

  00049	48 8d a5 c8 00
	00 00		 lea	 rsp, QWORD PTR [rbp+200]
  00050	5f		 pop	 rdi
  00051	5d		 pop	 rbp
  00052	c3		 ret	 0
wmemcpy	ENDP
_TEXT	ENDS
; Function compile flags: /Odtp /RTCsu /ZI
; File C:\Users\Rahul Kumar\source\repos\CH04_01_sol\CH04_01\Ch04_01_fcpp.cpp
;	COMDAT ?__empty_global_delete@@YAXPEAX_K@Z
_TEXT	SEGMENT
__formal$ = 224
__formal$ = 232
?__empty_global_delete@@YAXPEAX_K@Z PROC		; __empty_global_delete, COMDAT

$LN3:
  00000	48 89 54 24 10	 mov	 QWORD PTR [rsp+16], rdx
  00005	48 89 4c 24 08	 mov	 QWORD PTR [rsp+8], rcx
  0000a	55		 push	 rbp
  0000b	57		 push	 rdi
  0000c	48 81 ec e8 00
	00 00		 sub	 rsp, 232		; 000000e8H
  00013	48 8d 6c 24 20	 lea	 rbp, QWORD PTR [rsp+32]
  00018	48 8d 0d 00 00
	00 00		 lea	 rcx, OFFSET FLAT:__3B2006D1_Ch04_01_fcpp@cpp
  0001f	e8 00 00 00 00	 call	 __CheckForDebuggerJustMyCode
  00024	48 8d a5 c8 00
	00 00		 lea	 rsp, QWORD PTR [rbp+200]
  0002b	5f		 pop	 rdi
  0002c	5d		 pop	 rbp
  0002d	c3		 ret	 0
?__empty_global_delete@@YAXPEAX_K@Z ENDP		; __empty_global_delete
_TEXT	ENDS
; Function compile flags: /Odtp /RTCsu /ZI
; File C:\Users\Rahul Kumar\source\repos\CH04_01_sol\CH04_01\Ch04_01_fcpp.cpp
;	COMDAT ?__empty_global_delete@@YAXPEAX@Z
_TEXT	SEGMENT
__formal$ = 224
?__empty_global_delete@@YAXPEAX@Z PROC			; __empty_global_delete, COMDAT

$LN3:
  00000	48 89 4c 24 08	 mov	 QWORD PTR [rsp+8], rcx
  00005	55		 push	 rbp
  00006	57		 push	 rdi
  00007	48 81 ec e8 00
	00 00		 sub	 rsp, 232		; 000000e8H
  0000e	48 8d 6c 24 20	 lea	 rbp, QWORD PTR [rsp+32]
  00013	48 8d 0d 00 00
	00 00		 lea	 rcx, OFFSET FLAT:__3B2006D1_Ch04_01_fcpp@cpp
  0001a	e8 00 00 00 00	 call	 __CheckForDebuggerJustMyCode
  0001f	48 8d a5 c8 00
	00 00		 lea	 rsp, QWORD PTR [rbp+200]
  00026	5f		 pop	 rdi
  00027	5d		 pop	 rbp
  00028	c3		 ret	 0
?__empty_global_delete@@YAXPEAX@Z ENDP			; __empty_global_delete
_TEXT	ENDS
END
